target datalayout = "e-m:e-p270:32:32-p271:32:32-p272:64:64-i64:64-i128:128-f80:128-n8:16:32:64-S128"
target triple = "x86_64-pc-linux-gnu"

%struct._lv_image_t = type { %struct._lv_obj_t, ptr, ptr, %struct.lv_point_t, i32, i32, i32, i32, i32, %struct.lv_point_t, i16 }
%struct._lv_obj_t = type { ptr, ptr, ptr, ptr, ptr, %struct.lv_area_t, i32, i16, i16 }
%struct.lv_area_t = type { i32, i32, i32, i32 }
%struct.lv_point_t = type { i32, i32 }

; Function Attrs: nounwind uwtable
define internal void @lv_image_destructor(ptr noundef %0, ptr noundef %1) #0 {
  %3 = alloca ptr, align 8
  %4 = alloca ptr, align 8
  %5 = alloca ptr, align 8
  store ptr %0, ptr %3, align 8, !tbaa !3
  store ptr %1, ptr %4, align 8, !tbaa !8
  call void @llvm.lifetime.start.p0(i64 8, ptr %5) #5
  %6 = load ptr, ptr %4, align 8, !tbaa !8
  store ptr %6, ptr %5, align 8, !tbaa !10
  %7 = load ptr, ptr %5, align 8, !tbaa !10
  %8 = getelementptr inbounds nuw %struct._lv_image_t, ptr %7, i32 0, i32 10
  %9 = load i16, ptr %8, align 4
  %10 = and i16 %9, 3
  %11 = zext i16 %10 to i32
  %12 = icmp eq i32 %11, 1
  br i1 %12, label %20, label %13

13:                                               ; preds = %2
  %14 = load ptr, ptr %5, align 8, !tbaa !10
  %15 = getelementptr inbounds nuw %struct._lv_image_t, ptr %14, i32 0, i32 10
  %16 = load i16, ptr %15, align 4
  %17 = and i16 %16, 3
  %18 = zext i16 %17 to i32
  %19 = icmp eq i32 %18, 2
  br i1 %19, label %20, label %31

20:                                               ; preds = %13, %2
  %21 = load ptr, ptr %5, align 8, !tbaa !10
  %22 = getelementptr inbounds nuw %struct._lv_image_t, ptr %21, i32 0, i32 1
  %23 = load ptr, ptr %22, align 8, !tbaa !12
  call void @lv_free(ptr noundef %23)
  %24 = load ptr, ptr %5, align 8, !tbaa !10
  %25 = getelementptr inbounds nuw %struct._lv_image_t, ptr %24, i32 0, i32 1
  store ptr null, ptr %25, align 8, !tbaa !12
  %26 = load ptr, ptr %5, align 8, !tbaa !10
  %27 = getelementptr inbounds nuw %struct._lv_image_t, ptr %26, i32 0, i32 10
  %28 = load i16, ptr %27, align 4
  %29 = and i16 %28, -4
  %30 = or i16 %29, 3
  store i16 %30, ptr %27, align 4
  br label %31

31:                                               ; preds = %20, %13
  call void @llvm.lifetime.end.p0(i64 8, ptr %5) #5
  ret void
}