; Function Attrs: nounwind uwtable
define internal void @lv_image_destructor(ptr readnone captures(none) %0, ptr noundef captures(none) %1) #0 {
  %3 = getelementptr inbounds nuw i8, ptr %1, i64 116
  %4 = load i16, ptr %3, align 4
  %5 = and i16 %4, 3
  %.off = add nsw i16 %5, -1
  %switch = icmp ult i16 %.off, 2
  br i1 %switch, label %6, label %11

6:                                                ; preds = %2
  %7 = getelementptr inbounds nuw i8, ptr %1, i64 64
  %8 = load ptr, ptr %7, align 8, !tbaa !3
  tail call void @lv_free(ptr noundef %8) #6
  store ptr null, ptr %7, align 8, !tbaa !3
  %9 = load i16, ptr %3, align 4
  %10 = or i16 %9, 3
  store i16 %10, ptr %3, align 4
  br label %11

11:                                               ; preds = %2, %6
  ret void
}